target datalayout = "e-m:e-p270:32:32-p271:32:32-p272:64:64-i64:64-i128:128-f80:128-n8:16:32:64-S128"
target triple = "x86_64-pc-linux-gnu"

%"struct.std::_Rb_tree_header" = type { %"struct.std::_Rb_tree_node_base", i64 }
%"struct.std::_Rb_tree_node_base" = type { i32, ptr, ptr, ptr }
%"class.std::__cxx11::basic_string" = type { %"struct.std::__cxx11::basic_string<char>::_Alloc_hider", i64, %union.anon }
%"struct.std::__cxx11::basic_string<char>::_Alloc_hider" = type { ptr }
%union.anon = type { i64, [8 x i8] }
%"class.llvm::SmallVectorBase" = type { ptr, i32, i32 }
%"class.llvm::StringRef" = type { ptr, i64 }
%"struct.llvm::LaneBitmask" = type { i64 }
%"class.llvm::gi::OperandRenderer.base" = type <{ ptr, i32 }>
%"class.llvm::CodeGenSubRegIndex" = type { ptr, %"class.std::__cxx11::basic_string", %"class.std::__cxx11::basic_string", %"struct.llvm::SubRegRangeByHwMode", i32, %"struct.llvm::LaneBitmask", %"class.llvm::SmallVector.496", %"class.llvm::SmallVector.501", i8, i8, %"class.std::map.506" }
%"struct.llvm::SubRegRangeByHwMode" = type { %"struct.llvm::InfoByHwMode.490" }
%"struct.llvm::InfoByHwMode.490" = type { %"class.std::map.491" }
%"class.std::map.491" = type { %"class.std::_Rb_tree.492" }
%"class.std::_Rb_tree.492" = type { %"struct.std::_Rb_tree<unsigned int, std::pair<const unsigned int, llvm::SubRegRange>, std::_Select1st<std::pair<const unsigned int, llvm::SubRegRange>>, std::less<unsigned int>>::_Rb_tree_impl" }
%"struct.std::_Rb_tree<unsigned int, std::pair<const unsigned int, llvm::SubRegRange>, std::_Select1st<std::pair<const unsigned int, llvm::SubRegRange>>, std::less<unsigned int>>::_Rb_tree_impl" = type { [8 x i8], %"struct.std::_Rb_tree_header" }
%"class.llvm::SmallVector.496" = type { %"class.llvm::SmallVectorImpl.497", %"struct.llvm::SmallVectorStorage.500" }
%"class.llvm::SmallVectorImpl.497" = type { %"class.llvm::SmallVectorTemplateBase.498" }
%"class.llvm::SmallVectorTemplateBase.498" = type { %"class.llvm::SmallVectorTemplateCommon.499" }
%"class.llvm::SmallVectorTemplateCommon.499" = type { %"class.llvm::SmallVectorBase" }
%"struct.llvm::SmallVectorStorage.500" = type { [16 x i8] }
%"class.llvm::SmallVector.501" = type { %"class.llvm::SmallVectorImpl.502", %"struct.llvm::SmallVectorStorage.505" }
%"class.llvm::SmallVectorImpl.502" = type { %"class.llvm::SmallVectorTemplateBase.503" }
%"class.llvm::SmallVectorTemplateBase.503" = type { %"class.llvm::SmallVectorTemplateCommon.504" }
%"class.llvm::SmallVectorTemplateCommon.504" = type { %"class.llvm::SmallVectorBase" }
%"struct.llvm::SmallVectorStorage.505" = type { [32 x i8] }
%"class.std::map.506" = type { %"class.std::_Rb_tree.507" }
%"class.std::_Rb_tree.507" = type { %"struct.std::_Rb_tree<llvm::CodeGenSubRegIndex *, std::pair<llvm::CodeGenSubRegIndex *const, llvm::CodeGenSubRegIndex *>, std::_Select1st<std::pair<llvm::CodeGenSubRegIndex *const, llvm::CodeGenSubRegIndex *>>, llvm::deref<std::less<void>>>::_Rb_tree_impl" }
%"struct.std::_Rb_tree<llvm::CodeGenSubRegIndex *, std::pair<llvm::CodeGenSubRegIndex *const, llvm::CodeGenSubRegIndex *>, std::_Select1st<std::pair<llvm::CodeGenSubRegIndex *const, llvm::CodeGenSubRegIndex *>>, llvm::deref<std::less<void>>>::_Rb_tree_impl" = type { [8 x i8], %"struct.std::_Rb_tree_header" }
%"class.llvm::gi::SubRegIndexRenderer" = type { %"class.llvm::gi::OperandRenderer.base", i32, ptr }

@.str.190 = private unnamed_addr constant [12 x i8] c"SubRegIndex\00", align 1

; Function Attrs: mustprogress nounwind uwtable
define linkonce_odr hidden noundef i64 @_ZNSt11char_traitsIcE6lengthEPKc(ptr noundef %0) #1 comdat align 2 {
  %2 = alloca ptr, align 8
  store ptr %0, ptr %2, align 8
  %3 = load ptr, ptr %2, align 8
  %4 = call i64 @strlen(ptr noundef %3) #5
  ret i64 %4
}

; Function Attrs: mustprogress nounwind uwtable
define linkonce_odr hidden void @_ZN4llvm9StringRefC2EPKc(ptr noundef nonnull align 8 dereferenceable(16) %0, ptr noundef %1) unnamed_addr #1 comdat align 2 {
  %3 = alloca ptr, align 8
  %4 = alloca ptr, align 8
  store ptr %0, ptr %3, align 8
  store ptr %1, ptr %4, align 8
  %5 = load ptr, ptr %3, align 8
  %6 = getelementptr inbounds nuw %"class.llvm::StringRef", ptr %5, i32 0, i32 0
  %7 = load ptr, ptr %4, align 8
  store ptr %7, ptr %6, align 8
  %8 = getelementptr inbounds nuw %"class.llvm::StringRef", ptr %5, i32 0, i32 1
  %9 = load ptr, ptr %4, align 8
  %10 = icmp ne ptr %9, null
  br i1 %10, label %11, label %14

11:                                               ; preds = %2
  %12 = load ptr, ptr %4, align 8
  %13 = call noundef i64 @_ZNSt11char_traitsIcE6lengthEPKc(ptr noundef %12)
  br label %15

14:                                               ; preds = %2
  br label %15

15:                                               ; preds = %14, %11
  %16 = phi i64 [ %13, %11 ], [ 0, %14 ]
  store i64 %16, ptr %8, align 8
  ret void
}

; Function Attrs: mustprogress nounwind uwtable
define dso_local void @_ZNK4llvm2gi19SubRegIndexRenderer17emitRenderOpcodesERNS0_10MatchTableERNS0_11RuleMatcherE(ptr noundef nonnull align 8 dereferenceable(24) %0, ptr noundef nonnull align 8 dereferenceable(66) %1, ptr noundef nonnull align 8 dereferenceable(448) %2) unnamed_addr #1 align 2 {
  %4 = alloca ptr, align 8
  %5 = alloca ptr, align 8
  %6 = alloca ptr, align 8
  %7 = alloca %"class.llvm::StringRef", align 8
  store ptr %0, ptr %4, align 8
  store ptr %1, ptr %5, align 8
  store ptr %2, ptr %6, align 8
  %8 = load ptr, ptr %4, align 8
  %9 = load ptr, ptr %5, align 8
  %10 = load ptr, ptr %6, align 8
  %11 = getelementptr inbounds nuw %"class.llvm::gi::SubRegIndexRenderer", ptr %8, i32 0, i32 1
  %12 = load i32, ptr %11, align 4
  %13 = getelementptr inbounds nuw %"class.llvm::gi::SubRegIndexRenderer", ptr %8, i32 0, i32 2
  %14 = load ptr, ptr %13, align 8
  %15 = getelementptr inbounds nuw %"class.llvm::CodeGenSubRegIndex", ptr %14, i32 0, i32 4
  %16 = load i32, ptr %15, align 8
  %17 = zext i32 %16 to i64
  call void @_ZN4llvm9StringRefC2EPKc(ptr noundef nonnull align 8 dereferenceable(16) %7, ptr noundef @.str.190)
  %18 = getelementptr inbounds nuw { ptr, i64 }, ptr %7, i32 0, i32 0
  %19 = load ptr, ptr %18, align 8
  %20 = getelementptr inbounds nuw { ptr, i64 }, ptr %7, i32 0, i32 1
  %21 = load i64, ptr %20, align 8
  call void @_ZN4llvm2gi11ImmRenderer10emitAddImmERNS0_10MatchTableERNS0_11RuleMatcherEjlNS_9StringRefE(ptr noundef nonnull align 8 dereferenceable(66) %9, ptr noundef nonnull align 8 dereferenceable(448) %10, i32 noundef %12, i64 noundef %17, ptr %19, i64 %21)
  ret void
}