; Function Attrs: mustprogress nounwind uwtable
define dso_local void @_ZNK4llvm2gi19SubRegIndexRenderer17emitRenderOpcodesERNS0_10MatchTableERNS0_11RuleMatcherE(ptr nocapture noundef nonnull readonly align 8 dereferenceable(24) %0, ptr noundef nonnull align 8 dereferenceable(66) %1, ptr nocapture nonnull readnone align 8 %2) unnamed_addr #0 align 2 {
  %4 = getelementptr inbounds nuw i8, ptr %0, i64 12
  %5 = load i32, ptr %4, align 4
  %6 = getelementptr inbounds nuw i8, ptr %0, i64 16
  %7 = load ptr, ptr %6, align 8
  %8 = getelementptr inbounds nuw i8, ptr %7, i64 120
  %9 = load i32, ptr %8, align 8
  %10 = zext i32 %9 to i64
  tail call void @_ZN4llvm2gi11ImmRenderer10emitAddImmERNS0_10MatchTableERNS0_11RuleMatcherEjlNS_9StringRefE(ptr noundef nonnull align 8 dereferenceable(66) %1, ptr nonnull align 8 poison, i32 noundef %5, i64 noundef %10, ptr nonnull @.str.190, i64 11)
  ret void
}